target datalayout = "e-m:e-p270:32:32-p271:32:32-p272:64:64-i64:64-i128:128-f80:128-n8:16:32:64-S128"
target triple = "x86_64-unknown-linux-gnu"

%struct.QTailQLink = type { ptr, ptr }
%struct.MemoryRegion = type { %struct.Object, i8, i8, i8, i8, i8, i8, i8, i8, i8, i8, ptr, ptr, ptr, ptr, ptr, ptr, i32, i128, i64, ptr, i64, i8, i8, i8, i8, i8, ptr, i64, i32, %union.anon.2, %union.anon.3, %union.anon.4, ptr, i32, ptr, ptr, i8 }
%struct.Object = type { ptr, ptr, ptr, i32, ptr }
%union.anon.2 = type { %struct.QTailQLink }
%union.anon.3 = type { %struct.QTailQLink }
%union.anon.4 = type { %struct.QTailQLink }
%struct.PortioList = type { ptr, ptr, ptr, i32, ptr, ptr, ptr, i8 }
%struct.MemoryRegionPortioList = type { %struct.Object, %struct.MemoryRegion, ptr, ptr }

; Function Attrs: nounwind sspstrong uwtable
define dso_local void @portio_list_del(ptr noundef %piolist) #0 {
entry:
  %piolist.addr = alloca ptr, align 8
  %mrpio = alloca ptr, align 8
  %i = alloca i32, align 4
  %__mptr = alloca ptr, align 8
  %tmp = alloca ptr, align 8
  store ptr %piolist, ptr %piolist.addr, align 8
  store i32 0, ptr %i, align 4
  br label %for.cond

for.cond:                                         ; preds = %for.inc, %entry
  %0 = load i32, ptr %i, align 4
  %1 = load ptr, ptr %piolist.addr, align 8
  %nr = getelementptr inbounds %struct.PortioList, ptr %1, i32 0, i32 3
  %2 = load i32, ptr %nr, align 8
  %cmp = icmp ult i32 %0, %2
  br i1 %cmp, label %for.body, label %for.end

for.body:                                         ; preds = %for.cond
  %3 = load ptr, ptr %piolist.addr, align 8
  %regions = getelementptr inbounds %struct.PortioList, ptr %3, i32 0, i32 4
  %4 = load ptr, ptr %regions, align 8
  %5 = load i32, ptr %i, align 4
  %idxprom = zext i32 %5 to i64
  %arrayidx = getelementptr ptr, ptr %4, i64 %idxprom
  %6 = load ptr, ptr %arrayidx, align 8
  store ptr %6, ptr %__mptr, align 8
  %7 = load ptr, ptr %__mptr, align 8
  %add.ptr = getelementptr i8, ptr %7, i64 -48
  store ptr %add.ptr, ptr %tmp, align 8
  %8 = load ptr, ptr %tmp, align 8
  store ptr %8, ptr %mrpio, align 8
  %9 = load ptr, ptr %piolist.addr, align 8
  %address_space = getelementptr inbounds %struct.PortioList, ptr %9, i32 0, i32 2
  %10 = load ptr, ptr %address_space, align 8
  %11 = load ptr, ptr %mrpio, align 8
  %mr = getelementptr inbounds %struct.MemoryRegionPortioList, ptr %11, i32 0, i32 1
  call void @memory_region_del_subregion(ptr noundef %10, ptr noundef %mr)
  br label %for.inc

for.inc:                                          ; preds = %for.body
  %12 = load i32, ptr %i, align 4
  %inc = add i32 %12, 1
  store i32 %inc, ptr %i, align 4
  br label %for.cond, !llvm.loop !10

for.end:                                          ; preds = %for.cond
  ret void
}