; Function Attrs: nounwind sspstrong uwtable
define dso_local void @portio_list_del(ptr noundef readonly captures(none) %piolist) local_unnamed_addr #1 {
entry:
  %nr = getelementptr inbounds nuw i8, ptr %piolist, i64 24
  %0 = load i32, ptr %nr, align 8
  %cmp5.not = icmp eq i32 %0, 0
  br i1 %cmp5.not, label %for.end, label %for.body.lr.ph

for.body.lr.ph:                                   ; preds = %entry
  %regions = getelementptr inbounds nuw i8, ptr %piolist, i64 32
  %address_space = getelementptr inbounds nuw i8, ptr %piolist, i64 16
  br label %for.body

for.body:                                         ; preds = %for.body.lr.ph, %for.body
  %indvars.iv = phi i64 [ 0, %for.body.lr.ph ], [ %indvars.iv.next, %for.body ]
  %1 = load ptr, ptr %regions, align 8
  %arrayidx = getelementptr ptr, ptr %1, i64 %indvars.iv
  %2 = load ptr, ptr %arrayidx, align 8
  %3 = load ptr, ptr %address_space, align 8
  tail call void @memory_region_del_subregion(ptr noundef %3, ptr noundef %2) #11
  %indvars.iv.next = add nuw nsw i64 %indvars.iv, 1
  %4 = load i32, ptr %nr, align 8
  %5 = zext i32 %4 to i64
  %cmp = icmp samesign ult i64 %indvars.iv.next, %5
  br i1 %cmp, label %for.body, label %for.end, !llvm.loop !13

for.end:                                          ; preds = %for.body, %entry
  ret void
}